; Function Attrs: mustprogress uwtable
define void @_ZN7rocksdb16ThreadStatusUtil15SetColumnFamilyEPKNS_16ColumnFamilyDataE(ptr noundef %0) local_unnamed_addr #3 align 2 {
  %2 = tail call align 8 ptr @llvm.threadlocal.address.p0(ptr align 8 @_ZN7rocksdb16ThreadStatusUtil27thread_updater_local_cache_E)
  %3 = load ptr, ptr %2, align 8, !tbaa !18
  %4 = icmp eq ptr %3, null
  br i1 %4, label %6, label %5

5:                                                ; preds = %1
  tail call void @_ZN7rocksdb19ThreadStatusUpdater22SetColumnFamilyInfoKeyEPKv(ptr noundef nonnull align 8 dereferenceable(216) %3, ptr noundef %0)
  br label %6

6:                                                ; preds = %1, %5
  ret void
}